#include <math.h>
#include <stdio.h>
#include <stdlib.h>
#include <string.h>

int main()
{
	int a[16],k,m,n,j;
	do
	{   j=0;
		scanf("%d",&a[0]);
	    if(a[0]!=-1)
		{ 
			for(k=1;k<=15;k++)
			{
				scanf("%d",&a[k]);
                if(!a[k])break;
			}
            for(m=0;m<k-1;m++)
			{
				for(n=m+1;n<k;n++)
				{
					if((a[m]-2*a[n]==0)||(a[n]-2*a[m]==0))
					j++;
				}
			}
			printf("%d\n",j);
		}
	}
	while(a[0]!=-1);
	return 0;
}